target datalayout = "e-m:e-p270:32:32-p271:32:32-p272:64:64-i64:64-i128:128-f80:128-n8:16:32:64-S128"
target triple = "x86_64-pc-linux-gnu"

; Function Attrs: nounwind uwtable
define i32 @ff_idet_filter_line_c_16bit(ptr noundef %0, ptr noundef %1, ptr noundef %2, i32 noundef %3) #0 {
  %5 = alloca ptr, align 8
  %6 = alloca ptr, align 8
  %7 = alloca ptr, align 8
  %8 = alloca i32, align 4
  %9 = alloca i32, align 4
  %10 = alloca i32, align 4
  %11 = alloca i32, align 4
  store ptr %0, ptr %5, align 8, !tbaa !14
  store ptr %1, ptr %6, align 8, !tbaa !14
  store ptr %2, ptr %7, align 8, !tbaa !14
  store i32 %3, ptr %8, align 4, !tbaa !9
  call void @llvm.lifetime.start.p0(i64 4, ptr %9) #10
  call void @llvm.lifetime.start.p0(i64 4, ptr %10) #10
  store i32 0, ptr %10, align 4, !tbaa !9
  store i32 0, ptr %9, align 4, !tbaa !9
  br label %12

12:                                               ; preds = %43, %4
  %13 = load i32, ptr %9, align 4, !tbaa !9
  %14 = load i32, ptr %8, align 4, !tbaa !9
  %15 = icmp slt i32 %13, %14
  br i1 %15, label %16, label %46

16:                                               ; preds = %12
  call void @llvm.lifetime.start.p0(i64 4, ptr %11) #10
  %17 = load ptr, ptr %5, align 8, !tbaa !14
  %18 = getelementptr inbounds nuw i16, ptr %17, i32 1
  store ptr %18, ptr %5, align 8, !tbaa !14
  %19 = load i16, ptr %17, align 2, !tbaa !16
  %20 = zext i16 %19 to i32
  %21 = load ptr, ptr %7, align 8, !tbaa !14
  %22 = getelementptr inbounds nuw i16, ptr %21, i32 1
  store ptr %22, ptr %7, align 8, !tbaa !14
  %23 = load i16, ptr %21, align 2, !tbaa !16
  %24 = zext i16 %23 to i32
  %25 = add nsw i32 %20, %24
  %26 = load ptr, ptr %6, align 8, !tbaa !14
  %27 = getelementptr inbounds nuw i16, ptr %26, i32 1
  store ptr %27, ptr %6, align 8, !tbaa !14
  %28 = load i16, ptr %26, align 2, !tbaa !16
  %29 = zext i16 %28 to i32
  %30 = mul nsw i32 2, %29
  %31 = sub nsw i32 %25, %30
  store i32 %31, ptr %11, align 4, !tbaa !9
  %32 = load i32, ptr %11, align 4, !tbaa !9
  %33 = icmp sge i32 %32, 0
  br i1 %33, label %34, label %36

34:                                               ; preds = %16
  %35 = load i32, ptr %11, align 4, !tbaa !9
  br label %39

36:                                               ; preds = %16
  %37 = load i32, ptr %11, align 4, !tbaa !9
  %38 = sub nsw i32 0, %37
  br label %39

39:                                               ; preds = %36, %34
  %40 = phi i32 [ %35, %34 ], [ %38, %36 ]
  %41 = load i32, ptr %10, align 4, !tbaa !9
  %42 = add nsw i32 %41, %40
  store i32 %42, ptr %10, align 4, !tbaa !9
  call void @llvm.lifetime.end.p0(i64 4, ptr %11) #10
  br label %43

43:                                               ; preds = %39
  %44 = load i32, ptr %9, align 4, !tbaa !9
  %45 = add nsw i32 %44, 1
  store i32 %45, ptr %9, align 4, !tbaa !9
  br label %12, !llvm.loop !18

46:                                               ; preds = %12
  %47 = load i32, ptr %10, align 4, !tbaa !9
  call void @llvm.lifetime.end.p0(i64 4, ptr %10) #10
  call void @llvm.lifetime.end.p0(i64 4, ptr %9) #10
  ret i32 %47
}